target datalayout = "e-m:e-p270:32:32-p271:32:32-p272:64:64-i64:64-i128:128-f80:128-n8:16:32:64-S128"
target triple = "x86_64-pc-linux-gnu"

%struct._cms_typehandler_struct = type { i32, ptr, ptr, ptr, ptr, ptr, i32 }
%struct._cms_io_handler = type { ptr, ptr, i32, i32, [256 x i8], ptr, ptr, ptr, ptr, ptr }
%struct.cmsICCData = type { i32, i32, [1 x i8] }

; Function Attrs: nounwind uwtable
define internal ptr @Type_Data_Read(ptr noundef %0, ptr noundef %1, ptr noundef %2, i32 noundef %3) #0 {
  %5 = alloca ptr, align 8
  %6 = alloca ptr, align 8
  %7 = alloca ptr, align 8
  %8 = alloca ptr, align 8
  %9 = alloca i32, align 4
  %10 = alloca ptr, align 8
  %11 = alloca i32, align 4
  store ptr %0, ptr %6, align 8
  store ptr %1, ptr %7, align 8
  store ptr %2, ptr %8, align 8
  store i32 %3, ptr %9, align 4
  %12 = load ptr, ptr %8, align 8
  store i32 0, ptr %12, align 4
  %13 = load i32, ptr %9, align 4
  %14 = zext i32 %13 to i64
  %15 = icmp ult i64 %14, 4
  br i1 %15, label %16, label %17

16:                                               ; preds = %4
  store ptr null, ptr %5, align 8
  br label %72

17:                                               ; preds = %4
  %18 = load i32, ptr %9, align 4
  %19 = zext i32 %18 to i64
  %20 = sub i64 %19, 4
  %21 = trunc i64 %20 to i32
  store i32 %21, ptr %11, align 4
  %22 = load i32, ptr %11, align 4
  %23 = icmp ugt i32 %22, 2147483647
  br i1 %23, label %24, label %25

24:                                               ; preds = %17
  store ptr null, ptr %5, align 8
  br label %72

25:                                               ; preds = %17
  %26 = load ptr, ptr %6, align 8
  %27 = getelementptr inbounds %struct._cms_typehandler_struct, ptr %26, i32 0, i32 5
  %28 = load ptr, ptr %27, align 8
  %29 = load i32, ptr %11, align 4
  %30 = zext i32 %29 to i64
  %31 = add i64 12, %30
  %32 = sub i64 %31, 1
  %33 = trunc i64 %32 to i32
  %34 = call ptr @_cmsMalloc(ptr noundef %28, i32 noundef %33)
  store ptr %34, ptr %10, align 8
  %35 = load ptr, ptr %10, align 8
  %36 = icmp eq ptr %35, null
  br i1 %36, label %37, label %38

37:                                               ; preds = %25
  store ptr null, ptr %5, align 8
  br label %72

38:                                               ; preds = %25
  %39 = load i32, ptr %11, align 4
  %40 = load ptr, ptr %10, align 8
  %41 = getelementptr inbounds %struct.cmsICCData, ptr %40, i32 0, i32 0
  store i32 %39, ptr %41, align 4
  %42 = load ptr, ptr %7, align 8
  %43 = load ptr, ptr %10, align 8
  %44 = getelementptr inbounds %struct.cmsICCData, ptr %43, i32 0, i32 1
  %45 = call i32 @_cmsReadUInt32Number(ptr noundef %42, ptr noundef %44)
  %46 = icmp ne i32 %45, 0
  br i1 %46, label %52, label %47

47:                                               ; preds = %38
  %48 = load ptr, ptr %6, align 8
  %49 = getelementptr inbounds %struct._cms_typehandler_struct, ptr %48, i32 0, i32 5
  %50 = load ptr, ptr %49, align 8
  %51 = load ptr, ptr %10, align 8
  call void @_cmsFree(ptr noundef %50, ptr noundef %51)
  store ptr null, ptr %5, align 8
  br label %72

52:                                               ; preds = %38
  %53 = load ptr, ptr %7, align 8
  %54 = getelementptr inbounds %struct._cms_io_handler, ptr %53, i32 0, i32 5
  %55 = load ptr, ptr %54, align 8
  %56 = load ptr, ptr %7, align 8
  %57 = load ptr, ptr %10, align 8
  %58 = getelementptr inbounds %struct.cmsICCData, ptr %57, i32 0, i32 2
  %59 = getelementptr inbounds [1 x i8], ptr %58, i64 0, i64 0
  %60 = load i32, ptr %11, align 4
  %61 = call i32 %55(ptr noundef %56, ptr noundef %59, i32 noundef 1, i32 noundef %60)
  %62 = load i32, ptr %11, align 4
  %63 = icmp ne i32 %61, %62
  br i1 %63, label %64, label %69

64:                                               ; preds = %52
  %65 = load ptr, ptr %6, align 8
  %66 = getelementptr inbounds %struct._cms_typehandler_struct, ptr %65, i32 0, i32 5
  %67 = load ptr, ptr %66, align 8
  %68 = load ptr, ptr %10, align 8
  call void @_cmsFree(ptr noundef %67, ptr noundef %68)
  store ptr null, ptr %5, align 8
  br label %72

69:                                               ; preds = %52
  %70 = load ptr, ptr %8, align 8
  store i32 1, ptr %70, align 4
  %71 = load ptr, ptr %10, align 8
  store ptr %71, ptr %5, align 8
  br label %72

72:                                               ; preds = %69, %64, %47, %37, %24, %16
  %73 = load ptr, ptr %5, align 8
  ret ptr %73
}