; Function Attrs: nounwind uwtable
define internal ptr @Type_Data_Read(ptr nocapture noundef readonly %0, ptr noundef %1, ptr nocapture noundef writeonly %2, i32 noundef %3) #0 {
  store i32 0, ptr %2, align 4
  %5 = icmp ult i32 %3, 4
  br i1 %5, label %28, label %6

6:                                                ; preds = %4
  %7 = add i32 %3, -4
  %8 = icmp slt i32 %7, 0
  br i1 %8, label %28, label %9

9:                                                ; preds = %6
  %10 = getelementptr inbounds i8, ptr %0, i64 40
  %11 = load ptr, ptr %10, align 8
  %12 = add nuw i32 %3, 7
  %13 = tail call ptr @_cmsMalloc(ptr noundef %11, i32 noundef %12) #13
  %14 = icmp eq ptr %13, null
  br i1 %14, label %28, label %15

15:                                               ; preds = %9
  store i32 %7, ptr %13, align 4
  %16 = getelementptr inbounds i8, ptr %13, i64 4
  %17 = tail call i32 @_cmsReadUInt32Number(ptr noundef %1, ptr noundef nonnull %16) #13
  %.not = icmp eq i32 %17, 0
  br i1 %.not, label %18, label %20

18:                                               ; preds = %15
  %19 = load ptr, ptr %10, align 8
  tail call void @_cmsFree(ptr noundef %19, ptr noundef nonnull %13) #13
  br label %28

20:                                               ; preds = %15
  %21 = getelementptr inbounds i8, ptr %1, i64 280
  %22 = load ptr, ptr %21, align 8
  %23 = getelementptr inbounds i8, ptr %13, i64 8
  %24 = tail call i32 %22(ptr noundef %1, ptr noundef nonnull %23, i32 noundef 1, i32 noundef %7) #13
  %.not25 = icmp eq i32 %24, %7
  br i1 %.not25, label %27, label %25

25:                                               ; preds = %20
  %26 = load ptr, ptr %10, align 8
  tail call void @_cmsFree(ptr noundef %26, ptr noundef nonnull %13) #13
  br label %28

27:                                               ; preds = %20
  store i32 1, ptr %2, align 4
  br label %28

28:                                               ; preds = %9, %6, %4, %27, %25, %18
  %.0 = phi ptr [ null, %25 ], [ %13, %27 ], [ null, %18 ], [ null, %4 ], [ null, %6 ], [ null, %9 ]
  ret ptr %.0
}